; Function Attrs: mustprogress uwtable
define void @_ZNK10open_spiel5tarok9TarokGame11SetRNGStateERKNSt7__cxx1112basic_stringIcSt11char_traitsIcESaIcEEE(ptr noundef nonnull align 8 dereferenceable(5288) %0, ptr noundef nonnull align 8 dereferenceable(32) %1) unnamed_addr #5 align 2 personality ptr @__gxx_personality_v0 {
  %3 = alloca %"class.std::__cxx11::basic_istringstream", align 8
  %4 = tail call noundef zeroext i1 @_ZNKSt7__cxx1112basic_stringIcSt11char_traitsIcESaIcEE5emptyEv(ptr noundef nonnull align 8 dereferenceable(32) %1) #30
  br i1 %4, label %26, label %5

5:                                                ; preds = %2
  call void @_ZNSt7__cxx1119basic_istringstreamIcSt11char_traitsIcESaIcEEC1ERKNS_12basic_stringIcS2_S3_EESt13_Ios_Openmode(ptr noundef nonnull align 8 dereferenceable(120) %3, ptr noundef nonnull align 8 dereferenceable(32) %1, i32 noundef 8)
  %6 = getelementptr inbounds nuw i8, ptr %0, i64 288
  %7 = load ptr, ptr %3, align 8
  %8 = getelementptr i8, ptr %7, i64 -24
  %9 = load i64, ptr %8, align 8
  %10 = getelementptr inbounds i8, ptr %3, i64 %9
  %11 = getelementptr inbounds nuw i8, ptr %10, i64 24
  %12 = load i32, ptr %11, align 8
  store i32 4098, ptr %11, align 8
  br label %13

13:                                               ; preds = %.noexc, %5
  %.011.i = phi i64 [ 0, %5 ], [ %16, %.noexc ]
  %14 = getelementptr inbounds nuw [624 x i64], ptr %6, i64 0, i64 %.011.i
  %15 = invoke noundef nonnull align 8 dereferenceable(16) ptr @_ZNSirsERm(ptr noundef nonnull align 8 dereferenceable(16) %3, ptr noundef nonnull align 8 dereferenceable(8) %14)
          to label %.noexc unwind label %.loopexit

.noexc:                                           ; preds = %13
  %16 = add nuw nsw i64 %.011.i, 1
  %exitcond.not.i = icmp eq i64 %16, 624
  br i1 %exitcond.not.i, label %17, label %13, !llvm.loop !34

17:                                               ; preds = %.noexc
  %18 = getelementptr inbounds nuw i8, ptr %0, i64 5280
  %19 = invoke noundef nonnull align 8 dereferenceable(16) ptr @_ZNSirsERm(ptr noundef nonnull align 8 dereferenceable(16) %3, ptr noundef nonnull align 8 dereferenceable(8) %18)
          to label %20 unwind label %.loopexit.split-lp

20:                                               ; preds = %17
  %21 = load ptr, ptr %3, align 8
  %22 = getelementptr i8, ptr %21, i64 -24
  %23 = load i64, ptr %22, align 8
  %24 = getelementptr inbounds i8, ptr %3, i64 %23
  %25 = getelementptr inbounds nuw i8, ptr %24, i64 24
  store i32 %12, ptr %25, align 8
  call void @_ZNSt7__cxx1119basic_istringstreamIcSt11char_traitsIcESaIcEED1Ev(ptr noundef nonnull align 8 dereferenceable(120) %3) #30
  br label %26

26:                                               ; preds = %2, %20
  ret void

.loopexit:                                        ; preds = %13
  %lpad.loopexit = landingpad { ptr, i32 }
          cleanup
  br label %27

.loopexit.split-lp:                               ; preds = %17
  %lpad.loopexit.split-lp = landingpad { ptr, i32 }
          cleanup
  br label %27

27:                                               ; preds = %.loopexit.split-lp, %.loopexit
  %lpad.phi = phi { ptr, i32 } [ %lpad.loopexit, %.loopexit ], [ %lpad.loopexit.split-lp, %.loopexit.split-lp ]
  call void @_ZNSt7__cxx1119basic_istringstreamIcSt11char_traitsIcESaIcEED1Ev(ptr noundef nonnull align 8 dereferenceable(120) %3) #30
  resume { ptr, i32 } %lpad.phi
}